ccopy_reg
_reconstructor
p0
(cindex_build
fmIndex
p1
c__builtin__
object
p2
Ntp3
Rp4
(dp5
S'occ'
p6
(dp7
S'a'
p8
I1
sS'#'
p9
I0
sS'c'
p10
I1327
sS'g'
p11
I2505
sS't'
p12
I3754
ssS'data'
p13
S'ccgacgcgccgacataatggtgcaagtggcagtagtagtcaggtactgagggcagccagtcgtctgctagctactcggtgactcgctgccaacgttgtgggattaaccttatgtgcgtaaccacgccacaatcggtcgtagagagagccgaaaagtacaaatgtaaccacaattgtaccgaggtaaggttcgcgtggcacccattggggcaatctttttcaatcattgactactagctccggggggtggctttaatagtgtagacagaatcttctcgtttagctattcataggaagcatgggatttccaacctaacaattcggggccgatcggctttagggcacgcagattcccatccatgtaatatcctctctcgcacgtacaaaatcagcgcgtttccgactgtgcttcattaatctagtaggattttcgttgagtctcgtctcatgtgccgatgatagtcattctgtcgtgacaaacattggatccaaattttggcattagatgccctgatattacatgcgcgtttaatcgaccaggaagacgaagggagagaatacggaccccggcctacgtcattaatgttacgaggtagatgcaagagttccacgccgatctgccgaacgcgaaggtagagagagactaaaggtttttaaacagtagagggcgacaagtcaactcgagcatcgggagctcccgtggaatccgcaacagtcgtgggtccggggacgtgataaaaagtgagaccgcccaaaaactcatcgcgcgttctcacgtaagcttcataagaatagtctcgagaacaagttgcgataagacatgaagactagatccaaaggcgcatcgcacactcctaagaggcgaccccttacccggcatcaactctagatatgataactggttaagctaagcagatatatgggcaatataggcggagttaactttatccacggttcttagtgggaacaccgaagaacataattgtgtctaaggaagtggtaaaaagaaacccggctcattcgctaaatgagcagtatacagaaatgtatgttattggggagtttttagtgcgagtgggggtctcaccctcaacggtgagttccttataggtagcttgcgtccaagcaggcaagggtaaagatatagaaccgagtccgacgagccaggggtccagggctgccagatcggagggcagagtaatcctcatgaaccccgcgtttcgacaatcttaacgtacgtctgtaagcactgtgtcgccccccgttcggtaactagggatcaagacaatttttcacatccgcaatatctctaaaagtgcccctctgttggtcgtaccgatagcgctcaacaaatctaaaagatattctagtcacgttaattcgataaggccctaagcgaggccgccattcaccttttatgcctcgataactgctcatattagcgtagcccagctgtcgccaatcgctcagacgctatggttccattctaattgtgctttacgtacgtcttactgctgtacgtttttttcacagatgaagtttgtccaatccttgaaactattcttcccgacccaatagaagtggcccgaaaacaacgcaaaacgaaacagttagcgagtccaaaacgatttccaatgcaccgactttttagttgggaagctgggaatctgccctagaggctcgtgagagagtggcttccgcgccctccagcgtcttaccccctgtgataggtccggtatggaagacgggatacaactagaaatcttcttgcggtatacgccaaggatgcccaataaatacaaactccttaagaactgagagaactcgagggcttgccttatgaatccgcggactctgttgagaagaagtaagagttgggttcataggaggaacccagattatcataagaggtgccagtatccaggacacgtctccgcccagctatcgagacgatagctagcgttctaagcgacagccctaggcaaagctgccgaccaaatacataagacacctgtcgaaaacgggtgagtacatagataattagaccgtgcgcctatctagaagttaatcaaagttccatgtaggggaccggctgtaagcctcggggcattatgtaaaaaagcatataccttttcctagtcctctagaccacgcatatttatagcaaatttatttatattcagccacccccatcagcctgcatagcaaacagcagctgatgg#tttttgctctttctaaagaagtagaccccagacgtcaaattttccttgtgttccggttactcgacggggacggcaaggggccgcggggagccggatggcttagagttgcgccaggtgcagacaccgtaacgagctagagagccttattttgaaccatcactctgttttctgggcgtgagtatagtattcctctgtcgctaggccggttaactcttttgtcatacccggtaccatgccctacaccgggcgcaatgccacaagaactaccagtgatttgctgaatcataagagtagctatacagctcgtgatccgtgtagtggcccttggcaggctcggatcccgcgtatttgttttgaaggctgctcgatcgggacgaacccgaaatttccactagatccatcttgaatgtgtcttccagccgacagcgtcgtgttgactgaaagtttcataactatgaccaaccggcggtatcagttttggccttcacatcttgaagacatgcccgcccccattcaggagtttagataagcagtaaacatctctatttcttatggagccacaagtcggaaaacgcccatggtacaatcgtgaactagtcgtagcttagatggctatggtttctatgtgaattctagattatgtgtagcgccacctgagtaggaataccctgttgtacaggacgtcagactcagcggatatttgaaagctttcattgtacgcatttgctaggtaccgcttctttgtaaagcgataaccatagggagcgcaactacgtaaattctgtgccctttaatacgcataagactgtaaatgttccaaaaggaaagtctcagagacagagttgcacaccatcgccacaaagcgtccgagcctaaacgggatcagctacagttcaggtccgggaacttgcactggacaattgctcgagtacaccgaggaacaacctatcgatgaagacacccaccggagtagtacatgggcgggagcttgacggagaaacgtgcgcagcaagaaaagaaaaaaatagcctcgtaaagagtgtaccacgctggcttaactgtctgatcgaacgaagcatcccagtgtctaatcgtgggaagtctacattatgtatatctgtcagcgttcgacccctcgctcgtttacagaaatcagaacggtaaggaaaagcgggcggtttattgccctaaaagtagtggtcatttacggtgatgctgttcaggctgcccgctaacgtttggagtgcgtcaaccatgaattttgaaaggtcgggaatactgtggtcctagcggctgtaattatgtctagtgggcccatcgacgggcgtgctacatcaagtctagggactctacgtctcggccgatcactatggttgaggtgcacattttgaaggtcttaaccgacaactcaattaatatccaaaagaatctatcgaatatatctaaaatgtcgtaaggctgctctgcgttggcctgagttggttgggccgggcctggaatccgatataatccgccgtgtccgcagcggacattgtgttctaagctgtccagaagactccaggattttctaaggtgtgaatcggtgacaagtggaattaatcggatcgctaatgcatgctactctgggtgagcgtacttccgtctatgcagacttctggaggggggtcaaccattacatctagcccactctgcttcggatgttggaccggggggtatgataaagttaccctgctcaaataagtaaaccaccaagtaagccggggagttcggtgaagattaataacggatggcgtctcatcgttcgacctcgagtgctccatcggggctaggagtgatgccaggcggttccgactactttagatgactccgccccaaagtgtacccctcagctaaaggggtaaaaactcttgctccgaggcactatagaacctactcttcttgatagtaagctatgagcacccgatctcctagcacaagtttaggaaacgctatggtgacaccggagctagttggcgaatatggacgatgactcacctacggcctatgtcacgagaccgttcgcacgcaaaccgcataagaaccgaactgtgaatcacaagtatacaaaagggttgcaacggcctttgccggcttgggacagaaaactagcatccgttgcgcactgtagatttctccgcgcgcatactaccgtgtcgtgggatacgatctaaaatttgcaggccttctatgaagtagacgttaacgctaagcgaggccaaatcaaagacatagaggtcgccggtggatatctaatccaagagtgtgaaccccaatttcaaggcgatagccggctatgagcgctatccccctaaacacctttctccattatttccgcatttggtgcattcttctgtatgagcgtagtgtagcgcgtttcggtatagtaggtgtttgggaaaccaagtagtgagcgcatttatttaagttttcgttctggggagttactatggtgcataatcaaccagaaactgtcgaggtacagtcggacgatcgcctttactaggtcgtttagcgcttggagtagtgccatgcccgaggggatggactgcccgttggctcaggcttaatcccttatctaagctcctgactgtgggttcatttacggcgccgatcaggtaccttcttaggcgaaagagatggcttttcgtttagattccaaaggggtatgctggttgtatccgaggtcagataagacgatcctttagcggtcccagcgtcgactgtcgccaggatctgaaga'
p14
sS'offset'
p15
(dp16
sb.